target datalayout = "e-m:e-p270:32:32-p271:32:32-p272:64:64-i64:64-i128:128-f80:128-n8:16:32:64-S128"
target triple = "x86_64-pc-linux-gnu"

%struct.Proto = type { ptr, i8, i8, i8, i8, i8, i32, i32, i32, i32, i32, i32, i32, i32, i32, ptr, ptr, ptr, ptr, ptr, ptr, ptr, ptr, ptr }
%struct.lua_State = type { ptr, i8, i8, i8, i8, i16, %union.StkIdRel, ptr, ptr, %union.StkIdRel, %union.StkIdRel, ptr, %union.StkIdRel, ptr, ptr, ptr, %struct.CallInfo, ptr, i64, i32, i32, i32, i32, i32, %struct.anon.2 }
%union.StkIdRel = type { ptr }
%struct.CallInfo = type { %union.StkIdRel, %union.StkIdRel, ptr, ptr, %union.anon, %union.anon.1, i32 }
%union.anon = type { %struct.anon.0 }
%struct.anon.0 = type { ptr, i64, i64 }
%union.anon.1 = type { i32 }
%struct.anon.2 = type { i32, i32 }
%struct.anon = type { ptr, i32, i32 }
%struct.TValue = type { %union.Value, i8 }
%union.Value = type { ptr }
%struct.LClosure = type { ptr, i8, i8, i8, ptr, ptr, [1 x ptr] }

; Function Attrs: nounwind uwtable
define hidden i32 @luaG_tracecall(ptr noundef %0) #0 {
  %2 = alloca i32, align 4
  %3 = alloca ptr, align 8
  %4 = alloca ptr, align 8
  %5 = alloca ptr, align 8
  %6 = alloca i32, align 4
  store ptr %0, ptr %3, align 8, !tbaa !30
  call void @llvm.lifetime.start.p0(i64 8, ptr %4) #8
  %7 = load ptr, ptr %3, align 8, !tbaa !30
  %8 = getelementptr inbounds nuw %struct.lua_State, ptr %7, i32 0, i32 8
  %9 = load ptr, ptr %8, align 8, !tbaa !46
  store ptr %9, ptr %4, align 8, !tbaa !47
  call void @llvm.lifetime.start.p0(i64 8, ptr %5) #8
  %10 = load ptr, ptr %4, align 8, !tbaa !47
  %11 = getelementptr inbounds nuw %struct.CallInfo, ptr %10, i32 0, i32 0
  %12 = load ptr, ptr %11, align 8, !tbaa !22
  %13 = getelementptr inbounds nuw %struct.TValue, ptr %12, i32 0, i32 0
  %14 = load ptr, ptr %13, align 8, !tbaa !22
  %15 = getelementptr inbounds nuw %struct.LClosure, ptr %14, i32 0, i32 5
  %16 = load ptr, ptr %15, align 8, !tbaa !59
  store ptr %16, ptr %5, align 8, !tbaa !4
  %17 = load ptr, ptr %4, align 8, !tbaa !47
  %18 = getelementptr inbounds nuw %struct.CallInfo, ptr %17, i32 0, i32 4
  %19 = getelementptr inbounds nuw %struct.anon, ptr %18, i32 0, i32 1
  store volatile i32 1, ptr %19, align 8, !tbaa !22
  %20 = load ptr, ptr %4, align 8, !tbaa !47
  %21 = getelementptr inbounds nuw %struct.CallInfo, ptr %20, i32 0, i32 4
  %22 = getelementptr inbounds nuw %struct.anon, ptr %21, i32 0, i32 0
  %23 = load ptr, ptr %22, align 8, !tbaa !22
  %24 = load ptr, ptr %5, align 8, !tbaa !4
  %25 = getelementptr inbounds nuw %struct.Proto, ptr %24, i32 0, i32 16
  %26 = load ptr, ptr %25, align 8, !tbaa !63
  %27 = icmp eq ptr %23, %26
  br i1 %27, label %28, label %47

28:                                               ; preds = %1
  %29 = load ptr, ptr %5, align 8, !tbaa !4
  %30 = getelementptr inbounds nuw %struct.Proto, ptr %29, i32 0, i32 4
  %31 = load i8, ptr %30, align 1, !tbaa !62
  %32 = zext i8 %31 to i32
  %33 = and i32 %32, 1
  %34 = icmp ne i32 %33, 0
  br i1 %34, label %35, label %36

35:                                               ; preds = %28
  store i32 0, ptr %2, align 4
  store i32 1, ptr %6, align 4
  br label %48

36:                                               ; preds = %28
  %37 = load ptr, ptr %4, align 8, !tbaa !47
  %38 = getelementptr inbounds nuw %struct.CallInfo, ptr %37, i32 0, i32 6
  %39 = load i32, ptr %38, align 4, !tbaa !48
  %40 = and i32 %39, 8388608
  %41 = icmp ne i32 %40, 0
  br i1 %41, label %45, label %42

42:                                               ; preds = %36
  %43 = load ptr, ptr %3, align 8, !tbaa !30
  %44 = load ptr, ptr %4, align 8, !tbaa !47
  call void @luaD_hookcall(ptr noundef %43, ptr noundef %44)
  br label %45

45:                                               ; preds = %42, %36
  br label %46

46:                                               ; preds = %45
  br label %47

47:                                               ; preds = %46, %1
  store i32 1, ptr %2, align 4
  store i32 1, ptr %6, align 4
  br label %48

48:                                               ; preds = %47, %35
  call void @llvm.lifetime.end.p0(i64 8, ptr %5) #8
  call void @llvm.lifetime.end.p0(i64 8, ptr %4) #8
  %49 = load i32, ptr %2, align 4
  ret i32 %49
}