; Function Attrs: nounwind uwtable
define hidden range(i32 0, 2) i32 @luaG_tracecall(ptr noundef %0) local_unnamed_addr #6 {
  %2 = getelementptr inbounds nuw i8, ptr %0, i64 32
  %3 = load ptr, ptr %2, align 8, !tbaa !39
  %4 = load ptr, ptr %3, align 8, !tbaa !24
  %5 = load ptr, ptr %4, align 8, !tbaa !24
  %6 = getelementptr inbounds nuw i8, ptr %5, i64 24
  %7 = load ptr, ptr %6, align 8, !tbaa !45
  %8 = getelementptr inbounds nuw i8, ptr %3, i64 32
  %9 = getelementptr inbounds nuw i8, ptr %3, i64 40
  store volatile i32 1, ptr %9, align 8, !tbaa !24
  %10 = load ptr, ptr %8, align 8, !tbaa !24
  %11 = getelementptr inbounds nuw i8, ptr %7, i64 64
  %12 = load ptr, ptr %11, align 8, !tbaa !49
  %13 = icmp eq ptr %10, %12
  br i1 %13, label %14, label %23

14:                                               ; preds = %1
  %15 = getelementptr inbounds nuw i8, ptr %7, i64 11
  %16 = load i8, ptr %15, align 1, !tbaa !48
  %17 = and i8 %16, 1
  %.not = icmp eq i8 %17, 0
  br i1 %.not, label %18, label %23

18:                                               ; preds = %14
  %19 = getelementptr inbounds nuw i8, ptr %3, i64 60
  %20 = load i32, ptr %19, align 4, !tbaa !40
  %21 = and i32 %20, 8388608
  %.not9 = icmp eq i32 %21, 0
  br i1 %.not9, label %22, label %23

22:                                               ; preds = %18
  tail call void @luaD_hookcall(ptr noundef nonnull %0, ptr noundef nonnull %3) #13
  br label %23

23:                                               ; preds = %1, %18, %22, %14
  %.0 = phi i32 [ 0, %14 ], [ 1, %22 ], [ 1, %18 ], [ 1, %1 ]
  ret i32 %.0
}